; Function Attrs: mustprogress uwtable
define noundef nonnull align 8 dereferenceable(88) ptr @_ZN6duckdb10ArrayStats13GetChildStatsERNS_14BaseStatisticsE(ptr noundef nonnull readonly align 8 captures(none) dereferenceable(88) %0) local_unnamed_addr #3 align 2 personality ptr @__gxx_personality_v0 {
  %2 = alloca %"class.std::__cxx11::basic_string", align 8
  %3 = alloca %"class.std::allocator", align 1
  %4 = tail call noundef zeroext range(i8 0, 6) i8 @_ZN6duckdb14BaseStatistics12GetStatsTypeERKNS_11LogicalTypeE(ptr noundef nonnull readonly align 8 dereferenceable(88) %0)
  %.not = icmp eq i8 %4, 5
  br i1 %.not, label %19, label %5

5:                                                ; preds = %1
  %6 = tail call ptr @__cxa_allocate_exception(i64 16) #29
  call void @llvm.lifetime.start.p0(i64 32, ptr nonnull %2) #29
  call void @llvm.lifetime.start.p0(i64 1, ptr nonnull %3) #29
  invoke void @_ZNSt7__cxx1112basic_stringIcSt11char_traitsIcESaIcEEC2EPKcRKS3_(ptr noundef nonnull align 8 dereferenceable(32) %2, ptr noundef nonnull @.str.17, ptr noundef nonnull align 1 dereferenceable(1) %3)
          to label %7 unwind label %_ZNSt7__cxx1112basic_stringIcSt11char_traitsIcESaIcEED2Ev.exit.thread

7:                                                ; preds = %5
  invoke void @_ZN6duckdb17InternalExceptionC1ERKNSt7__cxx1112basic_stringIcSt11char_traitsIcESaIcEEE(ptr noundef nonnull align 8 dereferenceable(16) %6, ptr noundef nonnull align 8 dereferenceable(32) %2)
          to label %8 unwind label %10

8:                                                ; preds = %7
  invoke void @__cxa_throw(ptr nonnull %6, ptr nonnull @_ZTIN6duckdb17InternalExceptionE, ptr nonnull @_ZNSt13runtime_errorD2Ev) #33
          to label %23 unwind label %10

_ZNSt7__cxx1112basic_stringIcSt11char_traitsIcESaIcEED2Ev.exit.thread: ; preds = %5
  %9 = landingpad { ptr, i32 }
          cleanup
  call void @llvm.lifetime.end.p0(i64 1, ptr nonnull %3) #29
  call void @llvm.lifetime.end.p0(i64 32, ptr nonnull %2) #29
  br label %18

10:                                               ; preds = %8, %7
  %.0 = phi i1 [ false, %8 ], [ true, %7 ]
  %11 = landingpad { ptr, i32 }
          cleanup
  %12 = load ptr, ptr %2, align 8, !tbaa !77
  %13 = getelementptr inbounds nuw i8, ptr %2, i64 16
  %14 = icmp eq ptr %12, %13
  br i1 %14, label %_ZNKSt7__cxx1112basic_stringIcSt11char_traitsIcESaIcEE11_M_is_localEv.exit.thread.i.i, label %_ZNSt7__cxx1112basic_stringIcSt11char_traitsIcESaIcEED2Ev.exit

_ZNKSt7__cxx1112basic_stringIcSt11char_traitsIcESaIcEE11_M_is_localEv.exit.thread.i.i: ; preds = %10
  %15 = getelementptr inbounds nuw i8, ptr %2, i64 8
  %16 = load i64, ptr %15, align 8, !tbaa !81
  %17 = icmp ult i64 %16, 16
  call void @llvm.assume(i1 %17)
  call void @llvm.lifetime.end.p0(i64 1, ptr nonnull %3) #29
  call void @llvm.lifetime.end.p0(i64 32, ptr nonnull %2) #29
  br i1 %.0, label %18, label %22

_ZNSt7__cxx1112basic_stringIcSt11char_traitsIcESaIcEED2Ev.exit: ; preds = %10
  call void @_ZdlPv(ptr noundef %12) #30
  call void @llvm.lifetime.end.p0(i64 1, ptr nonnull %3) #29
  call void @llvm.lifetime.end.p0(i64 32, ptr nonnull %2) #29
  br i1 %.0, label %18, label %22

18:                                               ; preds = %_ZNKSt7__cxx1112basic_stringIcSt11char_traitsIcESaIcEE11_M_is_localEv.exit.thread.i.i, %_ZNSt7__cxx1112basic_stringIcSt11char_traitsIcESaIcEED2Ev.exit.thread, %_ZNSt7__cxx1112basic_stringIcSt11char_traitsIcESaIcEED2Ev.exit
  %.pn10 = phi { ptr, i32 } [ %9, %_ZNSt7__cxx1112basic_stringIcSt11char_traitsIcESaIcEED2Ev.exit.thread ], [ %11, %_ZNSt7__cxx1112basic_stringIcSt11char_traitsIcESaIcEED2Ev.exit ], [ %11, %_ZNKSt7__cxx1112basic_stringIcSt11char_traitsIcESaIcEE11_M_is_localEv.exit.thread.i.i ]
  call void @__cxa_free_exception(ptr %6) #29
  br label %22

19:                                               ; preds = %1
  %20 = getelementptr inbounds nuw i8, ptr %0, i64 80
  %21 = load ptr, ptr %20, align 8, !tbaa !33
  ret ptr %21

22:                                               ; preds = %_ZNKSt7__cxx1112basic_stringIcSt11char_traitsIcESaIcEE11_M_is_localEv.exit.thread.i.i, %_ZNSt7__cxx1112basic_stringIcSt11char_traitsIcESaIcEED2Ev.exit, %18
  %.pn9 = phi { ptr, i32 } [ %11, %_ZNSt7__cxx1112basic_stringIcSt11char_traitsIcESaIcEED2Ev.exit ], [ %.pn10, %18 ], [ %11, %_ZNKSt7__cxx1112basic_stringIcSt11char_traitsIcESaIcEE11_M_is_localEv.exit.thread.i.i ]
  resume { ptr, i32 } %.pn9

23:                                               ; preds = %8
  unreachable
}